target datalayout = "e-m:e-p270:32:32-p271:32:32-p272:64:64-i64:64-i128:128-f80:128-n8:16:32:64-S128"
target triple = "x86_64-pc-linux-gnu"

%struct.option = type { i32, i32, ptr, ptr, ptr, ptr, i32, ptr, i64, ptr, i64, ptr }

@.str.49 = private unnamed_addr constant [4 x i8] c"run\00", align 1
@.str.50 = private unnamed_addr constant [6 x i8] c"start\00", align 1
@.str.51 = private unnamed_addr constant [5 x i8] c"stop\00", align 1
@.str.52 = private unnamed_addr constant [9 x i8] c"register\00", align 1
@.str.53 = private unnamed_addr constant [11 x i8] c"unregister\00", align 1
@builtin_maintenance_usage = internal constant [2 x ptr] [ptr @.str.278, ptr null], align 16

; Function Attrs: nounwind uwtable
define dso_local i32 @cmd_maintenance(i32 noundef %0, ptr noundef %1, ptr noundef %2, ptr noundef %3) #0 {
  %5 = alloca i32, align 4
  %6 = alloca ptr, align 8
  %7 = alloca ptr, align 8
  %8 = alloca ptr, align 8
  %9 = alloca ptr, align 8
  %10 = alloca [6 x %struct.option], align 16
  store i32 %0, ptr %5, align 4, !tbaa !4
  store ptr %1, ptr %6, align 8, !tbaa !8
  store ptr %2, ptr %7, align 8, !tbaa !11
  store ptr %3, ptr %8, align 8, !tbaa !13
  call void @llvm.lifetime.start.p0(i64 8, ptr %9) #11
  store ptr null, ptr %9, align 8, !tbaa !54
  call void @llvm.lifetime.start.p0(i64 528, ptr %10) #11
  %11 = getelementptr inbounds nuw %struct.option, ptr %10, i32 0, i32 0
  store i32 4, ptr %11, align 8, !tbaa !34
  %12 = getelementptr inbounds nuw %struct.option, ptr %10, i32 0, i32 1
  store i32 0, ptr %12, align 4, !tbaa !36
  %13 = getelementptr inbounds nuw %struct.option, ptr %10, i32 0, i32 2
  store ptr @.str.49, ptr %13, align 8, !tbaa !37
  %14 = getelementptr inbounds nuw %struct.option, ptr %10, i32 0, i32 3
  store ptr %9, ptr %14, align 8, !tbaa !38
  %15 = getelementptr inbounds nuw %struct.option, ptr %10, i32 0, i32 4
  store ptr null, ptr %15, align 8, !tbaa !39
  %16 = getelementptr inbounds nuw %struct.option, ptr %10, i32 0, i32 5
  store ptr null, ptr %16, align 8, !tbaa !40
  %17 = getelementptr inbounds nuw %struct.option, ptr %10, i32 0, i32 6
  store i32 0, ptr %17, align 8, !tbaa !41
  %18 = getelementptr i8, ptr %10, i64 44
  call void @llvm.memset.p0.i64(ptr align 4 %18, i8 0, i64 4, i1 false)
  %19 = getelementptr inbounds nuw %struct.option, ptr %10, i32 0, i32 7
  store ptr null, ptr %19, align 8, !tbaa !42
  %20 = getelementptr inbounds nuw %struct.option, ptr %10, i32 0, i32 8
  store i64 0, ptr %20, align 8, !tbaa !43
  %21 = getelementptr inbounds nuw %struct.option, ptr %10, i32 0, i32 9
  store ptr null, ptr %21, align 8, !tbaa !44
  %22 = getelementptr inbounds nuw %struct.option, ptr %10, i32 0, i32 10
  store i64 0, ptr %22, align 8, !tbaa !45
  %23 = getelementptr inbounds nuw %struct.option, ptr %10, i32 0, i32 11
  store ptr @maintenance_run, ptr %23, align 8, !tbaa !46
  %24 = getelementptr inbounds %struct.option, ptr %10, i64 1
  %25 = getelementptr inbounds nuw %struct.option, ptr %24, i32 0, i32 0
  store i32 4, ptr %25, align 8, !tbaa !34
  %26 = getelementptr inbounds nuw %struct.option, ptr %24, i32 0, i32 1
  store i32 0, ptr %26, align 4, !tbaa !36
  %27 = getelementptr inbounds nuw %struct.option, ptr %24, i32 0, i32 2
  store ptr @.str.50, ptr %27, align 8, !tbaa !37
  %28 = getelementptr inbounds nuw %struct.option, ptr %24, i32 0, i32 3
  store ptr %9, ptr %28, align 8, !tbaa !38
  %29 = getelementptr inbounds nuw %struct.option, ptr %24, i32 0, i32 4
  store ptr null, ptr %29, align 8, !tbaa !39
  %30 = getelementptr inbounds nuw %struct.option, ptr %24, i32 0, i32 5
  store ptr null, ptr %30, align 8, !tbaa !40
  %31 = getelementptr inbounds nuw %struct.option, ptr %24, i32 0, i32 6
  store i32 0, ptr %31, align 8, !tbaa !41
  %32 = getelementptr i8, ptr %24, i64 44
  call void @llvm.memset.p0.i64(ptr align 4 %32, i8 0, i64 4, i1 false)
  %33 = getelementptr inbounds nuw %struct.option, ptr %24, i32 0, i32 7
  store ptr null, ptr %33, align 8, !tbaa !42
  %34 = getelementptr inbounds nuw %struct.option, ptr %24, i32 0, i32 8
  store i64 0, ptr %34, align 8, !tbaa !43
  %35 = getelementptr inbounds nuw %struct.option, ptr %24, i32 0, i32 9
  store ptr null, ptr %35, align 8, !tbaa !44
  %36 = getelementptr inbounds nuw %struct.option, ptr %24, i32 0, i32 10
  store i64 0, ptr %36, align 8, !tbaa !45
  %37 = getelementptr inbounds nuw %struct.option, ptr %24, i32 0, i32 11
  store ptr @maintenance_start, ptr %37, align 8, !tbaa !46
  %38 = getelementptr inbounds %struct.option, ptr %10, i64 2
  %39 = getelementptr inbounds nuw %struct.option, ptr %38, i32 0, i32 0
  store i32 4, ptr %39, align 8, !tbaa !34
  %40 = getelementptr inbounds nuw %struct.option, ptr %38, i32 0, i32 1
  store i32 0, ptr %40, align 4, !tbaa !36
  %41 = getelementptr inbounds nuw %struct.option, ptr %38, i32 0, i32 2
  store ptr @.str.51, ptr %41, align 8, !tbaa !37
  %42 = getelementptr inbounds nuw %struct.option, ptr %38, i32 0, i32 3
  store ptr %9, ptr %42, align 8, !tbaa !38
  %43 = getelementptr inbounds nuw %struct.option, ptr %38, i32 0, i32 4
  store ptr null, ptr %43, align 8, !tbaa !39
  %44 = getelementptr inbounds nuw %struct.option, ptr %38, i32 0, i32 5
  store ptr null, ptr %44, align 8, !tbaa !40
  %45 = getelementptr inbounds nuw %struct.option, ptr %38, i32 0, i32 6
  store i32 0, ptr %45, align 8, !tbaa !41
  %46 = getelementptr i8, ptr %38, i64 44
  call void @llvm.memset.p0.i64(ptr align 4 %46, i8 0, i64 4, i1 false)
  %47 = getelementptr inbounds nuw %struct.option, ptr %38, i32 0, i32 7
  store ptr null, ptr %47, align 8, !tbaa !42
  %48 = getelementptr inbounds nuw %struct.option, ptr %38, i32 0, i32 8
  store i64 0, ptr %48, align 8, !tbaa !43
  %49 = getelementptr inbounds nuw %struct.option, ptr %38, i32 0, i32 9
  store ptr null, ptr %49, align 8, !tbaa !44
  %50 = getelementptr inbounds nuw %struct.option, ptr %38, i32 0, i32 10
  store i64 0, ptr %50, align 8, !tbaa !45
  %51 = getelementptr inbounds nuw %struct.option, ptr %38, i32 0, i32 11
  store ptr @maintenance_stop, ptr %51, align 8, !tbaa !46
  %52 = getelementptr inbounds %struct.option, ptr %10, i64 3
  %53 = getelementptr inbounds nuw %struct.option, ptr %52, i32 0, i32 0
  store i32 4, ptr %53, align 8, !tbaa !34
  %54 = getelementptr inbounds nuw %struct.option, ptr %52, i32 0, i32 1
  store i32 0, ptr %54, align 4, !tbaa !36
  %55 = getelementptr inbounds nuw %struct.option, ptr %52, i32 0, i32 2
  store ptr @.str.52, ptr %55, align 8, !tbaa !37
  %56 = getelementptr inbounds nuw %struct.option, ptr %52, i32 0, i32 3
  store ptr %9, ptr %56, align 8, !tbaa !38
  %57 = getelementptr inbounds nuw %struct.option, ptr %52, i32 0, i32 4
  store ptr null, ptr %57, align 8, !tbaa !39
  %58 = getelementptr inbounds nuw %struct.option, ptr %52, i32 0, i32 5
  store ptr null, ptr %58, align 8, !tbaa !40
  %59 = getelementptr inbounds nuw %struct.option, ptr %52, i32 0, i32 6
  store i32 0, ptr %59, align 8, !tbaa !41
  %60 = getelementptr i8, ptr %52, i64 44
  call void @llvm.memset.p0.i64(ptr align 4 %60, i8 0, i64 4, i1 false)
  %61 = getelementptr inbounds nuw %struct.option, ptr %52, i32 0, i32 7
  store ptr null, ptr %61, align 8, !tbaa !42
  %62 = getelementptr inbounds nuw %struct.option, ptr %52, i32 0, i32 8
  store i64 0, ptr %62, align 8, !tbaa !43
  %63 = getelementptr inbounds nuw %struct.option, ptr %52, i32 0, i32 9
  store ptr null, ptr %63, align 8, !tbaa !44
  %64 = getelementptr inbounds nuw %struct.option, ptr %52, i32 0, i32 10
  store i64 0, ptr %64, align 8, !tbaa !45
  %65 = getelementptr inbounds nuw %struct.option, ptr %52, i32 0, i32 11
  store ptr @maintenance_register, ptr %65, align 8, !tbaa !46
  %66 = getelementptr inbounds %struct.option, ptr %10, i64 4
  %67 = getelementptr inbounds nuw %struct.option, ptr %66, i32 0, i32 0
  store i32 4, ptr %67, align 8, !tbaa !34
  %68 = getelementptr inbounds nuw %struct.option, ptr %66, i32 0, i32 1
  store i32 0, ptr %68, align 4, !tbaa !36
  %69 = getelementptr inbounds nuw %struct.option, ptr %66, i32 0, i32 2
  store ptr @.str.53, ptr %69, align 8, !tbaa !37
  %70 = getelementptr inbounds nuw %struct.option, ptr %66, i32 0, i32 3
  store ptr %9, ptr %70, align 8, !tbaa !38
  %71 = getelementptr inbounds nuw %struct.option, ptr %66, i32 0, i32 4
  store ptr null, ptr %71, align 8, !tbaa !39
  %72 = getelementptr inbounds nuw %struct.option, ptr %66, i32 0, i32 5
  store ptr null, ptr %72, align 8, !tbaa !40
  %73 = getelementptr inbounds nuw %struct.option, ptr %66, i32 0, i32 6
  store i32 0, ptr %73, align 8, !tbaa !41
  %74 = getelementptr i8, ptr %66, i64 44
  call void @llvm.memset.p0.i64(ptr align 4 %74, i8 0, i64 4, i1 false)
  %75 = getelementptr inbounds nuw %struct.option, ptr %66, i32 0, i32 7
  store ptr null, ptr %75, align 8, !tbaa !42
  %76 = getelementptr inbounds nuw %struct.option, ptr %66, i32 0, i32 8
  store i64 0, ptr %76, align 8, !tbaa !43
  %77 = getelementptr inbounds nuw %struct.option, ptr %66, i32 0, i32 9
  store ptr null, ptr %77, align 8, !tbaa !44
  %78 = getelementptr inbounds nuw %struct.option, ptr %66, i32 0, i32 10
  store i64 0, ptr %78, align 8, !tbaa !45
  %79 = getelementptr inbounds nuw %struct.option, ptr %66, i32 0, i32 11
  store ptr @maintenance_unregister, ptr %79, align 8, !tbaa !46
  %80 = getelementptr inbounds %struct.option, ptr %10, i64 5
  call void @llvm.memset.p0.i64(ptr align 8 %80, i8 0, i64 88, i1 false)
  %81 = getelementptr inbounds nuw %struct.option, ptr %80, i32 0, i32 0
  store i32 0, ptr %81, align 8, !tbaa !34
  %82 = load i32, ptr %5, align 4, !tbaa !4
  %83 = load ptr, ptr %6, align 8, !tbaa !8
  %84 = load ptr, ptr %7, align 8, !tbaa !11
  %85 = getelementptr inbounds [6 x %struct.option], ptr %10, i64 0, i64 0
  %86 = call i32 @parse_options(i32 noundef %82, ptr noundef %83, ptr noundef %84, ptr noundef %85, ptr noundef @builtin_maintenance_usage, i32 noundef 0)
  store i32 %86, ptr %5, align 4, !tbaa !4
  %87 = load ptr, ptr %9, align 8, !tbaa !54
  %88 = load i32, ptr %5, align 4, !tbaa !4
  %89 = load ptr, ptr %6, align 8, !tbaa !8
  %90 = load ptr, ptr %7, align 8, !tbaa !11
  %91 = load ptr, ptr %8, align 8, !tbaa !13
  %92 = call i32 %87(i32 noundef %88, ptr noundef %89, ptr noundef %90, ptr noundef %91)
  call void @llvm.lifetime.end.p0(i64 528, ptr %10) #11
  call void @llvm.lifetime.end.p0(i64 8, ptr %9) #11
  ret i32 %92
}