; Function Attrs: nounwind uwtable
define dso_local i32 @cmd_maintenance(i32 noundef %0, ptr noundef %1, ptr noundef %2, ptr noundef %3) local_unnamed_addr #0 {
  %5 = alloca ptr, align 8
  %6 = alloca [6 x %struct.option], align 16
  call void @llvm.lifetime.start.p0(i64 8, ptr nonnull %5) #21
  store ptr null, ptr %5, align 8, !tbaa !61
  call void @llvm.lifetime.start.p0(i64 528, ptr nonnull %6) #21
  store i32 4, ptr %6, align 16, !tbaa !27
  %7 = getelementptr inbounds nuw i8, ptr %6, i64 4
  store i32 0, ptr %7, align 4, !tbaa !29
  %8 = getelementptr inbounds nuw i8, ptr %6, i64 8
  store ptr @.str.49, ptr %8, align 8, !tbaa !30
  %9 = getelementptr inbounds nuw i8, ptr %6, i64 16
  store ptr %5, ptr %9, align 16, !tbaa !31
  %10 = getelementptr inbounds nuw i8, ptr %6, i64 24
  %11 = getelementptr inbounds nuw i8, ptr %6, i64 80
  call void @llvm.memset.p0.i64(ptr noundef nonnull align 8 dereferenceable(56) %10, i8 0, i64 56, i1 false)
  store ptr @maintenance_run, ptr %11, align 16, !tbaa !114
  %12 = getelementptr inbounds nuw i8, ptr %6, i64 88
  store i32 4, ptr %12, align 8, !tbaa !27
  %13 = getelementptr inbounds nuw i8, ptr %6, i64 92
  store i32 0, ptr %13, align 4, !tbaa !29
  %14 = getelementptr inbounds nuw i8, ptr %6, i64 96
  store ptr @.str.50, ptr %14, align 16, !tbaa !30
  %15 = getelementptr inbounds nuw i8, ptr %6, i64 104
  store ptr %5, ptr %15, align 8, !tbaa !31
  %16 = getelementptr inbounds nuw i8, ptr %6, i64 112
  %17 = getelementptr inbounds nuw i8, ptr %6, i64 168
  call void @llvm.memset.p0.i64(ptr noundef nonnull align 16 dereferenceable(56) %16, i8 0, i64 56, i1 false)
  store ptr @maintenance_start, ptr %17, align 8, !tbaa !114
  %18 = getelementptr inbounds nuw i8, ptr %6, i64 176
  store i32 4, ptr %18, align 16, !tbaa !27
  %19 = getelementptr inbounds nuw i8, ptr %6, i64 180
  store i32 0, ptr %19, align 4, !tbaa !29
  %20 = getelementptr inbounds nuw i8, ptr %6, i64 184
  store ptr @.str.51, ptr %20, align 8, !tbaa !30
  %21 = getelementptr inbounds nuw i8, ptr %6, i64 192
  store ptr %5, ptr %21, align 16, !tbaa !31
  %22 = getelementptr inbounds nuw i8, ptr %6, i64 200
  %23 = getelementptr inbounds nuw i8, ptr %6, i64 256
  call void @llvm.memset.p0.i64(ptr noundef nonnull align 8 dereferenceable(56) %22, i8 0, i64 56, i1 false)
  store ptr @maintenance_stop, ptr %23, align 16, !tbaa !114
  %24 = getelementptr inbounds nuw i8, ptr %6, i64 264
  store i32 4, ptr %24, align 8, !tbaa !27
  %25 = getelementptr inbounds nuw i8, ptr %6, i64 268
  store i32 0, ptr %25, align 4, !tbaa !29
  %26 = getelementptr inbounds nuw i8, ptr %6, i64 272
  store ptr @.str.52, ptr %26, align 16, !tbaa !30
  %27 = getelementptr inbounds nuw i8, ptr %6, i64 280
  store ptr %5, ptr %27, align 8, !tbaa !31
  %28 = getelementptr inbounds nuw i8, ptr %6, i64 288
  %29 = getelementptr inbounds nuw i8, ptr %6, i64 344
  call void @llvm.memset.p0.i64(ptr noundef nonnull align 16 dereferenceable(56) %28, i8 0, i64 56, i1 false)
  store ptr @maintenance_register, ptr %29, align 8, !tbaa !114
  %30 = getelementptr inbounds nuw i8, ptr %6, i64 352
  store i32 4, ptr %30, align 16, !tbaa !27
  %31 = getelementptr inbounds nuw i8, ptr %6, i64 356
  store i32 0, ptr %31, align 4, !tbaa !29
  %32 = getelementptr inbounds nuw i8, ptr %6, i64 360
  store ptr @.str.53, ptr %32, align 8, !tbaa !30
  %33 = getelementptr inbounds nuw i8, ptr %6, i64 368
  store ptr %5, ptr %33, align 16, !tbaa !31
  %34 = getelementptr inbounds nuw i8, ptr %6, i64 376
  %35 = getelementptr inbounds nuw i8, ptr %6, i64 432
  call void @llvm.memset.p0.i64(ptr noundef nonnull align 8 dereferenceable(56) %34, i8 0, i64 56, i1 false)
  store ptr @maintenance_unregister, ptr %35, align 16, !tbaa !114
  %36 = getelementptr inbounds nuw i8, ptr %6, i64 440
  call void @llvm.memset.p0.i64(ptr noundef nonnull align 8 dereferenceable(88) %36, i8 0, i64 88, i1 false)
  %37 = call i32 @parse_options(i32 noundef %0, ptr noundef %1, ptr noundef %2, ptr noundef nonnull %6, ptr noundef nonnull @builtin_maintenance_usage, i32 noundef 0) #21
  %38 = load ptr, ptr %5, align 8, !tbaa !61
  %39 = call i32 %38(i32 noundef %37, ptr noundef %1, ptr noundef %2, ptr noundef %3) #21
  call void @llvm.lifetime.end.p0(i64 528, ptr nonnull %6) #21
  call void @llvm.lifetime.end.p0(i64 8, ptr nonnull %5) #21
  ret i32 %39
}